target datalayout = "e-m:e-p270:32:32-p271:32:32-p272:64:64-i64:64-i128:128-f80:128-n8:16:32:64-S128"
target triple = "x86_64-pc-linux-gnu"

%struct.rb_code_position_struct = type { i32, i32 }
%struct.RString = type { %struct.RBasic, i64, %union.anon.17 }
%struct.RBasic = type { i64, i64 }
%union.anon.17 = type { %struct.anon.18 }
%struct.anon.18 = type { ptr, %union.anon.19 }
%union.anon.19 = type { i64 }
%struct.lex_context = type { i16, [2 x i8] }
%struct.parser_params = type { ptr, ptr, %struct.anon.12, i64, i64, i32, i32, i32, i32, i32, ptr, ptr, ptr, ptr, i32, i32, ptr, i64, ptr, ptr, ptr, ptr, i64, i64, %struct.anon.13, ptr, i32, ptr, i32, i64, %struct.lex_context, ptr, ptr, ptr, i32, i64, ptr, ptr, i32, ptr }
%struct.anon.12 = type { ptr, ptr, ptr, %struct.parser_string_buffer, ptr, ptr, ptr, ptr, ptr, ptr, i32, i32, i32, i32 }
%struct.parser_string_buffer = type { ptr, ptr }
%struct.anon.13 = type { ptr, i32, i32, i32, i32 }
%struct.end_expect_token_locations = type { ptr, ptr }

@.str.573 = private unnamed_addr constant [6 x i8] c"%s: [\00", align 1
@.str.574 = private unnamed_addr constant [3 x i8] c", \00", align 1
@.str.575 = private unnamed_addr constant [9 x i8] c"[%d, %d]\00", align 1
@.str.576 = private unnamed_addr constant [3 x i8] c"]\0A\00", align 1

; Function Attrs: inlinehint nounwind sspstrong willreturn memory(read) uwtable
define internal i64 @RSTRING_LEN(i64 noundef %0) #3 {
  %2 = alloca i64, align 8
  store i64 %0, ptr %2, align 8, !tbaa !12
  %3 = load i64, ptr %2, align 8, !tbaa !12
  %4 = inttoptr i64 %3 to ptr
  %5 = getelementptr inbounds nuw %struct.RString, ptr %4, i32 0, i32 1
  %6 = load i64, ptr %5, align 8, !tbaa !28
  ret i64 %6
}

; Function Attrs: inlinehint nounwind sspstrong willreturn memory(none) uwtable
define internal zeroext i1 @RB_NIL_P(i64 noundef %0) #10 {
  %2 = alloca i64, align 8
  store i64 %0, ptr %2, align 8, !tbaa !12
  %3 = load i64, ptr %2, align 8, !tbaa !12
  %4 = icmp eq i64 %3, 4
  ret i1 %4
}

; Function Attrs: inlinehint nounwind sspstrong uwtable
define internal i64 @rbimpl_strlen(ptr noundef nonnull %0) #2 {
  %2 = alloca ptr, align 8
  store ptr %0, ptr %2, align 8, !tbaa !19
  %3 = load ptr, ptr %2, align 8, !tbaa !19
  %4 = call i64 @strlen(ptr noundef %3) #27
  ret i64 %4
}

; Function Attrs: nounwind sspstrong uwtable
define internal void @flush_debug_buffer(ptr noundef %0, i64 noundef %1, i64 noundef %2) #0 {
  %4 = alloca ptr, align 8
  %5 = alloca i64, align 8
  %6 = alloca i64, align 8
  %7 = alloca i64, align 8
  store ptr %0, ptr %4, align 8, !tbaa !7
  store i64 %1, ptr %5, align 8, !tbaa !12
  store i64 %2, ptr %6, align 8, !tbaa !12
  call void @llvm.lifetime.start.p0(i64 8, ptr %7) #26
  %8 = load ptr, ptr %4, align 8, !tbaa !7
  %9 = getelementptr inbounds nuw %struct.parser_params, ptr %8, i32 0, i32 22
  %10 = load i64, ptr %9, align 8, !tbaa !167
  store i64 %10, ptr %7, align 8, !tbaa !12
  %11 = load i64, ptr %7, align 8, !tbaa !12
  %12 = call zeroext i1 @RB_NIL_P(i64 noundef %11) #30
  br i1 %12, label %22, label %13

13:                                               ; preds = %3
  %14 = load i64, ptr %7, align 8, !tbaa !12
  %15 = call i64 @RSTRING_LEN(i64 noundef %14) #27
  %16 = icmp ne i64 %15, 0
  br i1 %16, label %17, label %22

17:                                               ; preds = %13
  %18 = load ptr, ptr %4, align 8, !tbaa !7
  %19 = getelementptr inbounds nuw %struct.parser_params, ptr %18, i32 0, i32 22
  store i64 4, ptr %19, align 8, !tbaa !167
  %20 = load i64, ptr %5, align 8, !tbaa !12
  %21 = call i64 @rb_io_puts(i32 noundef 1, ptr noundef %7, i64 noundef %20)
  br label %22

22:                                               ; preds = %17, %13, %3
  %23 = load i64, ptr %6, align 8, !tbaa !12
  %24 = call zeroext i1 @RB_NIL_P(i64 noundef %23) #30
  br i1 %24, label %35, label %25

25:                                               ; preds = %22
  %26 = load i64, ptr %6, align 8, !tbaa !12
  %27 = call i64 @RSTRING_LEN(i64 noundef %26) #27
  %28 = icmp ne i64 %27, 0
  br i1 %28, label %29, label %35

29:                                               ; preds = %25
  %30 = load ptr, ptr %4, align 8, !tbaa !7
  %31 = getelementptr inbounds nuw %struct.parser_params, ptr %30, i32 0, i32 23
  %32 = load i64, ptr %31, align 8, !tbaa !168
  %33 = load i64, ptr %6, align 8, !tbaa !12
  %34 = call i64 @rb_io_write(i64 noundef %32, i64 noundef %33)
  br label %35

35:                                               ; preds = %29, %25, %22
  call void @llvm.lifetime.end.p0(i64 8, ptr %7) #26
  ret void
}

; Function Attrs: inlinehint nounwind sspstrong uwtable
define internal i64 @rbimpl_str_cat_cstr(i64 noundef %0, ptr noundef nonnull %1) #2 {
  %3 = alloca i64, align 8
  %4 = alloca ptr, align 8
  %5 = alloca i64, align 8
  store i64 %0, ptr %3, align 8, !tbaa !12
  store ptr %1, ptr %4, align 8, !tbaa !19
  call void @llvm.lifetime.start.p0(i64 8, ptr %5) #26
  %6 = load ptr, ptr %4, align 8, !tbaa !19
  %7 = call i64 @rbimpl_strlen(ptr noundef %6)
  store i64 %7, ptr %5, align 8, !tbaa !12
  %8 = load i64, ptr %3, align 8, !tbaa !12
  %9 = load ptr, ptr %4, align 8, !tbaa !19
  %10 = load i64, ptr %5, align 8, !tbaa !12
  %11 = call i64 @rb_str_cat(i64 noundef %8, ptr noundef %9, i64 noundef %10)
  call void @llvm.lifetime.end.p0(i64 8, ptr %5) #26
  ret i64 %11
}

; Function Attrs: nounwind sspstrong uwtable
define internal void @debug_end_expect_token_locations(ptr noundef %0, ptr noundef %1) #0 {
  %3 = alloca ptr, align 8
  %4 = alloca ptr, align 8
  %5 = alloca i64, align 8
  %6 = alloca i32, align 4
  %7 = alloca ptr, align 8
  store ptr %0, ptr %3, align 8, !tbaa !7
  store ptr %1, ptr %4, align 8, !tbaa !19
  %8 = load ptr, ptr %3, align 8, !tbaa !7
  %9 = getelementptr inbounds nuw %struct.parser_params, ptr %8, i32 0, i32 34
  %10 = load i32, ptr %9, align 8
  %11 = lshr i32 %10, 5
  %12 = and i32 %11, 1
  %13 = icmp ne i32 %12, 0
  br i1 %13, label %14, label %57

14:                                               ; preds = %2
  call void @llvm.lifetime.start.p0(i64 8, ptr %5) #26
  %15 = load ptr, ptr %4, align 8, !tbaa !19
  %16 = call i64 (ptr, ...) @rb_sprintf(ptr noundef @.str.573, ptr noundef %15)
  store i64 %16, ptr %5, align 8, !tbaa !12
  call void @llvm.lifetime.start.p0(i64 4, ptr %6) #26
  store i32 0, ptr %6, align 4, !tbaa !34
  call void @llvm.lifetime.start.p0(i64 8, ptr %7) #26
  %17 = load ptr, ptr %3, align 8, !tbaa !7
  %18 = getelementptr inbounds nuw %struct.parser_params, ptr %17, i32 0, i32 37
  %19 = load ptr, ptr %18, align 8, !tbaa !444
  store ptr %19, ptr %7, align 8, !tbaa !441
  br label %20

20:                                               ; preds = %45, %14
  %21 = load ptr, ptr %7, align 8, !tbaa !441
  %22 = icmp ne ptr %21, null
  br i1 %22, label %24, label %23

23:                                               ; preds = %20
  call void @llvm.lifetime.end.p0(i64 8, ptr %7) #26
  br label %49

24:                                               ; preds = %20
  %25 = load i32, ptr %6, align 4, !tbaa !34
  %26 = icmp sgt i32 %25, 0
  br i1 %26, label %27, label %30

27:                                               ; preds = %24
  %28 = load i64, ptr %5, align 8, !tbaa !12
  %29 = call i64 @rbimpl_str_cat_cstr(i64 noundef %28, ptr noundef @.str.574)
  br label %30

30:                                               ; preds = %27, %24
  %31 = load i64, ptr %5, align 8, !tbaa !12
  %32 = load ptr, ptr %7, align 8, !tbaa !441
  %33 = getelementptr inbounds nuw %struct.end_expect_token_locations, ptr %32, i32 0, i32 0
  %34 = load ptr, ptr %33, align 8, !tbaa !442
  %35 = getelementptr inbounds nuw %struct.rb_code_position_struct, ptr %34, i32 0, i32 0
  %36 = load i32, ptr %35, align 4, !tbaa !461
  %37 = load ptr, ptr %7, align 8, !tbaa !441
  %38 = getelementptr inbounds nuw %struct.end_expect_token_locations, ptr %37, i32 0, i32 0
  %39 = load ptr, ptr %38, align 8, !tbaa !442
  %40 = getelementptr inbounds nuw %struct.rb_code_position_struct, ptr %39, i32 0, i32 1
  %41 = load i32, ptr %40, align 4, !tbaa !462
  %42 = call i64 (i64, ptr, ...) @rb_str_catf(i64 noundef %31, ptr noundef @.str.575, i32 noundef %36, i32 noundef %41)
  %43 = load i32, ptr %6, align 4, !tbaa !34
  %44 = add i32 %43, 1
  store i32 %44, ptr %6, align 4, !tbaa !34
  br label %45

45:                                               ; preds = %30
  %46 = load ptr, ptr %7, align 8, !tbaa !441
  %47 = getelementptr inbounds nuw %struct.end_expect_token_locations, ptr %46, i32 0, i32 1
  %48 = load ptr, ptr %47, align 8, !tbaa !445
  store ptr %48, ptr %7, align 8, !tbaa !441
  br label %20, !llvm.loop !588

49:                                               ; preds = %23
  %50 = load i64, ptr %5, align 8, !tbaa !12
  %51 = call i64 @rbimpl_str_cat_cstr(i64 noundef %50, ptr noundef @.str.576)
  %52 = load ptr, ptr %3, align 8, !tbaa !7
  %53 = load ptr, ptr %3, align 8, !tbaa !7
  %54 = getelementptr inbounds nuw %struct.parser_params, ptr %53, i32 0, i32 23
  %55 = load i64, ptr %54, align 8, !tbaa !168
  %56 = load i64, ptr %5, align 8, !tbaa !12
  call void @flush_debug_buffer(ptr noundef %52, i64 noundef %55, i64 noundef %56)
  call void @llvm.lifetime.end.p0(i64 4, ptr %6) #26
  call void @llvm.lifetime.end.p0(i64 8, ptr %5) #26
  br label %57

57:                                               ; preds = %49, %2
  ret void
}