; Function Attrs: nounwind sspstrong uwtable
define internal fastcc void @debug_end_expect_token_locations(ptr noundef captures(none) %0, ptr noundef %1) unnamed_addr #0 {
  %3 = alloca i64, align 8
  %4 = getelementptr inbounds nuw i8, ptr %0, i64 360
  %5 = load i32, ptr %4, align 8
  %6 = and i32 %5, 32
  %.not = icmp eq i32 %6, 0
  br i1 %.not, label %42, label %7

7:                                                ; preds = %2
  %8 = tail call i64 (ptr, ...) @rb_sprintf(ptr noundef nonnull @.str.573, ptr noundef %1) #35
  %9 = getelementptr inbounds nuw i8, ptr %0, i64 384
  %.016 = load ptr, ptr %9, align 8, !tbaa !525
  %.not1517 = icmp eq ptr %.016, null
  br i1 %.not1517, label %._crit_edge, label %.lr.ph

._crit_edge:                                      ; preds = %34, %7
  %10 = tail call i64 @rb_str_cat(i64 noundef %8, ptr noundef nonnull @.str.576, i64 noundef 2) #35
  %11 = getelementptr inbounds nuw i8, ptr %0, i64 256
  %12 = load i64, ptr %11, align 8, !tbaa !192
  call void @llvm.lifetime.start.p0(i64 8, ptr nonnull %3) #35
  %13 = getelementptr inbounds nuw i8, ptr %0, i64 248
  %14 = load i64, ptr %13, align 8, !tbaa !188
  store i64 %14, ptr %3, align 8, !tbaa !7
  %15 = icmp eq i64 %14, 4
  br i1 %15, label %22, label %16

16:                                               ; preds = %._crit_edge
  %17 = inttoptr i64 %14 to ptr
  %18 = getelementptr inbounds nuw i8, ptr %17, i64 16
  %19 = load i64, ptr %18, align 8, !tbaa !16
  %.not.i = icmp eq i64 %19, 0
  br i1 %.not.i, label %22, label %20

20:                                               ; preds = %16
  store i64 4, ptr %13, align 8, !tbaa !188
  %21 = call i64 @rb_io_puts(i32 noundef 1, ptr noundef nonnull %3, i64 noundef %12) #35
  br label %22

22:                                               ; preds = %20, %16, %._crit_edge
  %23 = icmp eq i64 %8, 4
  br i1 %23, label %flush_debug_buffer.exit, label %24

24:                                               ; preds = %22
  %25 = inttoptr i64 %8 to ptr
  %26 = getelementptr inbounds nuw i8, ptr %25, i64 16
  %27 = load i64, ptr %26, align 8, !tbaa !16
  %.not6.i = icmp eq i64 %27, 0
  br i1 %.not6.i, label %flush_debug_buffer.exit, label %28

28:                                               ; preds = %24
  %29 = load i64, ptr %11, align 8, !tbaa !192
  %30 = call i64 @rb_io_write(i64 noundef %29, i64 noundef %8) #35
  br label %flush_debug_buffer.exit

flush_debug_buffer.exit:                          ; preds = %22, %24, %28
  call void @llvm.lifetime.end.p0(i64 8, ptr nonnull %3) #35
  br label %42

.lr.ph:                                           ; preds = %7, %34
  %.019 = phi ptr [ %.0, %34 ], [ %.016, %7 ]
  %.01418 = phi i32 [ %40, %34 ], [ 0, %7 ]
  %31 = icmp sgt i32 %.01418, 0
  br i1 %31, label %32, label %34

32:                                               ; preds = %.lr.ph
  %33 = tail call i64 @rb_str_cat(i64 noundef %8, ptr noundef nonnull @.str.574, i64 noundef 2) #35
  br label %34

34:                                               ; preds = %32, %.lr.ph
  %35 = load ptr, ptr %.019, align 8, !tbaa !414
  %36 = load i32, ptr %35, align 4, !tbaa !526
  %37 = getelementptr inbounds nuw i8, ptr %35, i64 4
  %38 = load i32, ptr %37, align 4, !tbaa !527
  %39 = tail call i64 (i64, ptr, ...) @rb_str_catf(i64 noundef %8, ptr noundef nonnull @.str.575, i32 noundef %36, i32 noundef %38) #35
  %40 = add i32 %.01418, 1
  %41 = getelementptr inbounds nuw i8, ptr %.019, i64 8
  %.0 = load ptr, ptr %41, align 8, !tbaa !525
  %.not15 = icmp eq ptr %.0, null
  br i1 %.not15, label %._crit_edge, label %.lr.ph, !llvm.loop !528

42:                                               ; preds = %flush_debug_buffer.exit, %2
  ret void
}